target datalayout = "e-m:e-p270:32:32-p271:32:32-p272:64:64-i64:64-i128:128-f80:128-n8:16:32:64-S128"
target triple = "x86_64-pc-linux-gnu"

%"class.icu_77::UnicodeString" = type { %"class.icu_77::Replaceable", %"union.icu_77::UnicodeString::StackBufferOrFields" }
%"class.icu_77::Replaceable" = type { %"class.icu_77::UObject" }
%"class.icu_77::UObject" = type { ptr }
%"union.icu_77::UnicodeString::StackBufferOrFields" = type { %struct.anon.0, [32 x i8] }
%struct.anon.0 = type { i16, i32, i32, ptr }
%struct.anon = type { i16, [27 x i16] }

; Function Attrs: inlinehint mustprogress nounwind uwtable
define linkonce_odr noundef i32 @_ZNK6icu_7713UnicodeString14getShortLengthEv(ptr noundef nonnull align 8 dereferenceable(64) %0) #1 comdat align 2 {
  %2 = alloca ptr, align 8
  store ptr %0, ptr %2, align 8, !tbaa !3
  %3 = load ptr, ptr %2, align 8
  %4 = getelementptr inbounds nuw %"class.icu_77::UnicodeString", ptr %3, i32 0, i32 1
  %5 = getelementptr inbounds nuw %struct.anon.0, ptr %4, i32 0, i32 0
  %6 = load i16, ptr %5, align 8, !tbaa !14
  %7 = sext i16 %6 to i32
  %8 = ashr i32 %7, 5
  ret i32 %8
}

; Function Attrs: inlinehint mustprogress nounwind uwtable
define linkonce_odr noundef signext i8 @_ZNK6icu_7713UnicodeString14hasShortLengthEv(ptr noundef nonnull align 8 dereferenceable(64) %0) #1 comdat align 2 {
  %2 = alloca ptr, align 8
  store ptr %0, ptr %2, align 8, !tbaa !3
  %3 = load ptr, ptr %2, align 8
  %4 = getelementptr inbounds nuw %"class.icu_77::UnicodeString", ptr %3, i32 0, i32 1
  %5 = getelementptr inbounds nuw %struct.anon.0, ptr %4, i32 0, i32 0
  %6 = load i16, ptr %5, align 8, !tbaa !14
  %7 = sext i16 %6 to i32
  %8 = icmp sge i32 %7, 0
  %9 = zext i1 %8 to i8
  ret i8 %9
}

; Function Attrs: inlinehint mustprogress uwtable
define linkonce_odr noundef i32 @_ZNK6icu_7713UnicodeString6lengthEv(ptr noundef nonnull align 8 dereferenceable(64) %0) #2 comdat align 2 {
  %2 = alloca ptr, align 8
  store ptr %0, ptr %2, align 8, !tbaa !3
  %3 = load ptr, ptr %2, align 8
  %4 = call noundef signext i8 @_ZNK6icu_7713UnicodeString14hasShortLengthEv(ptr noundef nonnull align 8 dereferenceable(64) %3)
  %5 = icmp ne i8 %4, 0
  br i1 %5, label %6, label %8

6:                                                ; preds = %1
  %7 = call noundef i32 @_ZNK6icu_7713UnicodeString14getShortLengthEv(ptr noundef nonnull align 8 dereferenceable(64) %3)
  br label %12

8:                                                ; preds = %1
  %9 = getelementptr inbounds nuw %"class.icu_77::UnicodeString", ptr %3, i32 0, i32 1
  %10 = getelementptr inbounds nuw %struct.anon.0, ptr %9, i32 0, i32 1
  %11 = load i32, ptr %10, align 4, !tbaa !14
  br label %12

12:                                               ; preds = %8, %6
  %13 = phi i32 [ %7, %6 ], [ %11, %8 ]
  ret i32 %13
}

; Function Attrs: inlinehint mustprogress nounwind uwtable
define linkonce_odr noundef ptr @_ZNK6icu_7713UnicodeString13getArrayStartEv(ptr noundef nonnull align 8 dereferenceable(64) %0) #1 comdat align 2 {
  %2 = alloca ptr, align 8
  store ptr %0, ptr %2, align 8, !tbaa !3
  %3 = load ptr, ptr %2, align 8
  %4 = getelementptr inbounds nuw %"class.icu_77::UnicodeString", ptr %3, i32 0, i32 1
  %5 = getelementptr inbounds nuw %struct.anon.0, ptr %4, i32 0, i32 0
  %6 = load i16, ptr %5, align 8, !tbaa !14
  %7 = sext i16 %6 to i32
  %8 = and i32 %7, 2
  %9 = icmp ne i32 %8, 0
  br i1 %9, label %10, label %14

10:                                               ; preds = %1
  %11 = getelementptr inbounds nuw %"class.icu_77::UnicodeString", ptr %3, i32 0, i32 1
  %12 = getelementptr inbounds nuw %struct.anon, ptr %11, i32 0, i32 1
  %13 = getelementptr inbounds [27 x i16], ptr %12, i64 0, i64 0
  br label %18

14:                                               ; preds = %1
  %15 = getelementptr inbounds nuw %"class.icu_77::UnicodeString", ptr %3, i32 0, i32 1
  %16 = getelementptr inbounds nuw %struct.anon.0, ptr %15, i32 0, i32 3
  %17 = load ptr, ptr %16, align 8, !tbaa !14
  br label %18

18:                                               ; preds = %14, %10
  %19 = phi ptr [ %13, %10 ], [ %17, %14 ]
  ret ptr %19
}

; Function Attrs: inlinehint mustprogress uwtable
define linkonce_odr void @_ZNK6icu_7713UnicodeString10pinIndicesERiS1_(ptr noundef nonnull align 8 dereferenceable(64) %0, ptr noundef nonnull align 4 dereferenceable(4) %1, ptr noundef nonnull align 4 dereferenceable(4) %2) #2 comdat align 2 {
  %4 = alloca ptr, align 8
  %5 = alloca ptr, align 8
  %6 = alloca ptr, align 8
  %7 = alloca i32, align 4
  store ptr %0, ptr %4, align 8, !tbaa !3
  store ptr %1, ptr %5, align 8, !tbaa !15
  store ptr %2, ptr %6, align 8, !tbaa !15
  %8 = load ptr, ptr %4, align 8
  call void @llvm.lifetime.start.p0(i64 4, ptr %7) #7
  %9 = call noundef i32 @_ZNK6icu_7713UnicodeString6lengthEv(ptr noundef nonnull align 8 dereferenceable(64) %8)
  store i32 %9, ptr %7, align 4, !tbaa !8
  %10 = load ptr, ptr %5, align 8, !tbaa !15
  %11 = load i32, ptr %10, align 4, !tbaa !8
  %12 = icmp slt i32 %11, 0
  br i1 %12, label %13, label %15

13:                                               ; preds = %3
  %14 = load ptr, ptr %5, align 8, !tbaa !15
  store i32 0, ptr %14, align 4, !tbaa !8
  br label %24

15:                                               ; preds = %3
  %16 = load ptr, ptr %5, align 8, !tbaa !15
  %17 = load i32, ptr %16, align 4, !tbaa !8
  %18 = load i32, ptr %7, align 4, !tbaa !8
  %19 = icmp sgt i32 %17, %18
  br i1 %19, label %20, label %23

20:                                               ; preds = %15
  %21 = load i32, ptr %7, align 4, !tbaa !8
  %22 = load ptr, ptr %5, align 8, !tbaa !15
  store i32 %21, ptr %22, align 4, !tbaa !8
  br label %23

23:                                               ; preds = %20, %15
  br label %24

24:                                               ; preds = %23, %13
  %25 = load ptr, ptr %6, align 8, !tbaa !15
  %26 = load i32, ptr %25, align 4, !tbaa !8
  %27 = icmp slt i32 %26, 0
  br i1 %27, label %28, label %30

28:                                               ; preds = %24
  %29 = load ptr, ptr %6, align 8, !tbaa !15
  store i32 0, ptr %29, align 4, !tbaa !8
  br label %45

30:                                               ; preds = %24
  %31 = load ptr, ptr %6, align 8, !tbaa !15
  %32 = load i32, ptr %31, align 4, !tbaa !8
  %33 = load i32, ptr %7, align 4, !tbaa !8
  %34 = load ptr, ptr %5, align 8, !tbaa !15
  %35 = load i32, ptr %34, align 4, !tbaa !8
  %36 = sub nsw i32 %33, %35
  %37 = icmp sgt i32 %32, %36
  br i1 %37, label %38, label %44

38:                                               ; preds = %30
  %39 = load i32, ptr %7, align 4, !tbaa !8
  %40 = load ptr, ptr %5, align 8, !tbaa !15
  %41 = load i32, ptr %40, align 4, !tbaa !8
  %42 = sub nsw i32 %39, %41
  %43 = load ptr, ptr %6, align 8, !tbaa !15
  store i32 %42, ptr %43, align 4, !tbaa !8
  br label %44

44:                                               ; preds = %38, %30
  br label %45

45:                                               ; preds = %44, %28
  call void @llvm.lifetime.end.p0(i64 4, ptr %7) #7
  ret void
}

; Function Attrs: inlinehint mustprogress nounwind uwtable
define linkonce_odr noundef signext i8 @_ZNK6icu_7713UnicodeString7isBogusEv(ptr noundef nonnull align 8 dereferenceable(64) %0) #1 comdat align 2 {
  %2 = alloca ptr, align 8
  store ptr %0, ptr %2, align 8, !tbaa !3
  %3 = load ptr, ptr %2, align 8
  %4 = getelementptr inbounds nuw %"class.icu_77::UnicodeString", ptr %3, i32 0, i32 1
  %5 = getelementptr inbounds nuw %struct.anon.0, ptr %4, i32 0, i32 0
  %6 = load i16, ptr %5, align 8, !tbaa !14
  %7 = sext i16 %6 to i32
  %8 = and i32 %7, 1
  %9 = trunc i32 %8 to i8
  ret i8 %9
}

; Function Attrs: mustprogress uwtable
define noundef signext i8 @_ZNK6icu_7713UnicodeString13doCaseCompareEiiPKDsiij(ptr noundef nonnull align 8 dereferenceable(64) %0, i32 noundef %1, i32 noundef %2, ptr noundef %3, i32 noundef %4, i32 noundef %5, i32 noundef %6) #0 align 2 {
  %8 = alloca i8, align 1
  %9 = alloca ptr, align 8
  %10 = alloca i32, align 4
  %11 = alloca i32, align 4
  %12 = alloca ptr, align 8
  %13 = alloca i32, align 4
  %14 = alloca i32, align 4
  %15 = alloca i32, align 4
  %16 = alloca ptr, align 8
  %17 = alloca i32, align 4
  %18 = alloca i32, align 4
  %19 = alloca i32, align 4
  store ptr %0, ptr %9, align 8, !tbaa !3
  store i32 %1, ptr %10, align 4, !tbaa !8
  store i32 %2, ptr %11, align 4, !tbaa !8
  store ptr %3, ptr %12, align 8, !tbaa !10
  store i32 %4, ptr %13, align 4, !tbaa !8
  store i32 %5, ptr %14, align 4, !tbaa !8
  store i32 %6, ptr %15, align 4, !tbaa !8
  %20 = load ptr, ptr %9, align 8
  %21 = call noundef signext i8 @_ZNK6icu_7713UnicodeString7isBogusEv(ptr noundef nonnull align 8 dereferenceable(64) %20)
  %22 = icmp ne i8 %21, 0
  br i1 %22, label %23, label %24

23:                                               ; preds = %7
  store i8 -1, ptr %8, align 1
  br label %87

24:                                               ; preds = %7
  call void @_ZNK6icu_7713UnicodeString10pinIndicesERiS1_(ptr noundef nonnull align 8 dereferenceable(64) %20, ptr noundef nonnull align 4 dereferenceable(4) %10, ptr noundef nonnull align 4 dereferenceable(4) %11)
  %25 = load ptr, ptr %12, align 8, !tbaa !10
  %26 = icmp eq ptr %25, null
  br i1 %26, label %27, label %28

27:                                               ; preds = %24
  store i32 0, ptr %14, align 4, !tbaa !8
  store i32 0, ptr %13, align 4, !tbaa !8
  br label %28

28:                                               ; preds = %27, %24
  call void @llvm.lifetime.start.p0(i64 8, ptr %16) #7
  %29 = call noundef ptr @_ZNK6icu_7713UnicodeString13getArrayStartEv(ptr noundef nonnull align 8 dereferenceable(64) %20)
  store ptr %29, ptr %16, align 8, !tbaa !10
  %30 = load i32, ptr %10, align 4, !tbaa !8
  %31 = load ptr, ptr %16, align 8, !tbaa !10
  %32 = sext i32 %30 to i64
  %33 = getelementptr inbounds i16, ptr %31, i64 %32
  store ptr %33, ptr %16, align 8, !tbaa !10
  %34 = load i32, ptr %13, align 4, !tbaa !8
  %35 = icmp ne i32 %34, 0
  br i1 %35, label %36, label %41

36:                                               ; preds = %28
  %37 = load i32, ptr %13, align 4, !tbaa !8
  %38 = load ptr, ptr %12, align 8, !tbaa !10
  %39 = sext i32 %37 to i64
  %40 = getelementptr inbounds i16, ptr %38, i64 %39
  store ptr %40, ptr %12, align 8, !tbaa !10
  br label %41

41:                                               ; preds = %36, %28
  %42 = load ptr, ptr %16, align 8, !tbaa !10
  %43 = load ptr, ptr %12, align 8, !tbaa !10
  %44 = icmp ne ptr %42, %43
  br i1 %44, label %45, label %64

45:                                               ; preds = %41
  call void @llvm.lifetime.start.p0(i64 4, ptr %17) #7
  store i32 0, ptr %17, align 4, !tbaa !12
  call void @llvm.lifetime.start.p0(i64 4, ptr %18) #7
  %46 = load ptr, ptr %16, align 8, !tbaa !10
  %47 = load i32, ptr %11, align 4, !tbaa !8
  %48 = load ptr, ptr %12, align 8, !tbaa !10
  %49 = load i32, ptr %14, align 4, !tbaa !8
  %50 = load i32, ptr %15, align 4, !tbaa !8
  %51 = or i32 %50, 65536
  %52 = call i32 @u_strcmpFold_77(ptr noundef %46, i32 noundef %47, ptr noundef %48, i32 noundef %49, i32 noundef %51, ptr noundef %17)
  store i32 %52, ptr %18, align 4, !tbaa !8
  %53 = load i32, ptr %18, align 4, !tbaa !8
  %54 = icmp ne i32 %53, 0
  br i1 %54, label %55, label %60

55:                                               ; preds = %45
  %56 = load i32, ptr %18, align 4, !tbaa !8
  %57 = ashr i32 %56, 24
  %58 = or i32 %57, 1
  %59 = trunc i32 %58 to i8
  store i8 %59, ptr %8, align 1
  store i32 1, ptr %19, align 4
  br label %61

60:                                               ; preds = %45
  store i32 0, ptr %19, align 4
  br label %61

61:                                               ; preds = %60, %55
  call void @llvm.lifetime.end.p0(i64 4, ptr %18) #7
  call void @llvm.lifetime.end.p0(i64 4, ptr %17) #7
  %62 = load i32, ptr %19, align 4
  switch i32 %62, label %86 [
    i32 0, label %63
  ]

63:                                               ; preds = %61
  br label %85

64:                                               ; preds = %41
  %65 = load i32, ptr %14, align 4, !tbaa !8
  %66 = icmp slt i32 %65, 0
  br i1 %66, label %67, label %73

67:                                               ; preds = %64
  %68 = load ptr, ptr %12, align 8, !tbaa !10
  %69 = load i32, ptr %13, align 4, !tbaa !8
  %70 = sext i32 %69 to i64
  %71 = getelementptr inbounds i16, ptr %68, i64 %70
  %72 = call i32 @u_strlen_77(ptr noundef %71)
  store i32 %72, ptr %14, align 4, !tbaa !8
  br label %73

73:                                               ; preds = %67, %64
  %74 = load i32, ptr %11, align 4, !tbaa !8
  %75 = load i32, ptr %14, align 4, !tbaa !8
  %76 = icmp ne i32 %74, %75
  br i1 %76, label %77, label %84

77:                                               ; preds = %73
  %78 = load i32, ptr %11, align 4, !tbaa !8
  %79 = load i32, ptr %14, align 4, !tbaa !8
  %80 = sub nsw i32 %78, %79
  %81 = ashr i32 %80, 24
  %82 = or i32 %81, 1
  %83 = trunc i32 %82 to i8
  store i8 %83, ptr %8, align 1
  store i32 1, ptr %19, align 4
  br label %86

84:                                               ; preds = %73
  br label %85

85:                                               ; preds = %84, %63
  store i8 0, ptr %8, align 1
  store i32 1, ptr %19, align 4
  br label %86

86:                                               ; preds = %85, %77, %61
  call void @llvm.lifetime.end.p0(i64 8, ptr %16) #7
  br label %87

87:                                               ; preds = %86, %23
  %88 = load i8, ptr %8, align 1
  ret i8 %88
}