; Function Attrs: mustprogress uwtable
define noundef signext i8 @_ZNK6icu_7713UnicodeString13doCaseCompareEiiPKDsiij(ptr noundef nonnull align 8 dereferenceable(64) %0, i32 noundef %1, i32 noundef %2, ptr noundef %3, i32 noundef %4, i32 noundef %5, i32 noundef %6) local_unnamed_addr #0 align 2 {
  %8 = alloca i32, align 4
  %9 = getelementptr inbounds nuw i8, ptr %0, i64 8
  %10 = load i16, ptr %9, align 8, !tbaa !3
  %11 = and i16 %10, 1
  %.not = icmp eq i16 %11, 0
  br i1 %.not, label %.sink.split.i, label %50

.sink.split.i:                                    ; preds = %7
  %12 = icmp slt i16 %10, 0
  %13 = ashr i16 %10, 5
  %14 = sext i16 %13 to i32
  %15 = getelementptr inbounds nuw i8, ptr %0, i64 12
  %16 = load i32, ptr %15, align 4
  %17 = select i1 %12, i32 %16, i32 %14
  %18 = icmp slt i32 %1, 0
  %spec.select38 = tail call i32 @llvm.smin.i32(i32 %1, i32 %17)
  %.037 = select i1 %18, i32 0, i32 %spec.select38
  %19 = icmp slt i32 %2, 0
  %20 = sub nsw i32 %17, %.037
  %spec.select40 = tail call i32 @llvm.smin.i32(i32 %2, i32 %20)
  %.0 = select i1 %19, i32 0, i32 %spec.select40
  %21 = icmp eq ptr %3, null
  %spec.select32 = select i1 %21, i32 0, i32 %5
  %22 = and i16 %10, 2
  %.not.i = icmp eq i16 %22, 0
  %23 = getelementptr inbounds nuw i8, ptr %0, i64 10
  %24 = getelementptr inbounds nuw i8, ptr %0, i64 24
  %25 = load ptr, ptr %24, align 8
  %26 = select i1 %.not.i, ptr %25, ptr %23
  %27 = sext i32 %.037 to i64
  %28 = getelementptr inbounds i16, ptr %26, i64 %27
  %29 = sext i32 %4 to i64
  %30 = select i1 %21, i64 0, i64 %29
  %31 = getelementptr inbounds i16, ptr %3, i64 %30
  %.not29 = icmp eq ptr %28, %31
  br i1 %.not29, label %38, label %32

32:                                               ; preds = %.sink.split.i
  call void @llvm.lifetime.start.p0(i64 4, ptr nonnull %8) #6
  store i32 0, ptr %8, align 4, !tbaa !6
  %33 = or i32 %6, 65536
  %34 = call i32 @u_strcmpFold_77(ptr noundef %28, i32 noundef %.0, ptr noundef %31, i32 noundef %spec.select32, i32 noundef %33, ptr noundef nonnull %8)
  %.not31 = icmp eq i32 %34, 0
  %35 = lshr i32 %34, 24
  %36 = trunc nuw i32 %35 to i8
  %37 = or i8 %36, 1
  call void @llvm.lifetime.end.p0(i64 4, ptr nonnull %8) #6
  br i1 %.not31, label %49, label %50

38:                                               ; preds = %.sink.split.i
  %39 = icmp slt i32 %spec.select32, 0
  br i1 %39, label %40, label %43

40:                                               ; preds = %38
  %41 = getelementptr inbounds i16, ptr %31, i64 %30
  %42 = tail call i32 @u_strlen_77(ptr noundef %41)
  br label %43

43:                                               ; preds = %40, %38
  %.123 = phi i32 [ %42, %40 ], [ %spec.select32, %38 ]
  %.not30 = icmp eq i32 %.0, %.123
  br i1 %.not30, label %49, label %44

44:                                               ; preds = %43
  %45 = sub nsw i32 %.0, %.123
  %46 = lshr i32 %45, 24
  %47 = trunc nuw i32 %46 to i8
  %48 = or i8 %47, 1
  br label %50

49:                                               ; preds = %43, %32
  br label %50

50:                                               ; preds = %44, %49, %32, %7
  %.020 = phi i8 [ -1, %7 ], [ 0, %49 ], [ %37, %32 ], [ %48, %44 ]
  ret i8 %.020
}